target datalayout = "e-m:e-p270:32:32-p271:32:32-p272:64:64-i64:64-i128:128-f80:128-n8:16:32:64-S128"
target triple = "x86_64-pc-linux-gnu"

%"class.cv::utils::trace::details::Region" = type <{ ptr, i32, [4 x i8] }>
%"struct.cv::hal::cpu_baseline::(anonymous namespace)::RGB2RGB" = type { i32, i32, i32 }
%"class.cv::Range" = type { i32, i32 }
%"class.cv::impl::(anonymous namespace)::CvtColorLoop_Invoker" = type { %"class.cv::ParallelLoopBody", ptr, i64, ptr, i64, i32, ptr }
%"class.cv::ParallelLoopBody" = type { ptr }

; Function Attrs: mustprogress nounwind uwtable
define linkonce_odr hidden noundef zeroext i8 @_ZNSt14numeric_limitsIhE3maxEv() #2 comdat align 2 {
  ret i8 -1
}

; Function Attrs: mustprogress nounwind uwtable
define internal noundef zeroext i8 @_ZN2cv4impl12_GLOBAL__N_112ColorChannelIhE3maxEv() #2 align 2 {
  %1 = call noundef zeroext i8 @_ZNSt14numeric_limitsIhE3maxEv() #10
  ret i8 %1
}

; Function Attrs: mustprogress nounwind uwtable
define linkonce_odr hidden void @_ZN2cv5utils5trace7details6RegionD2Ev(ptr noundef nonnull align 8 dereferenceable(12) %0) unnamed_addr #2 comdat align 2 personality ptr @__gxx_personality_v0 {
  %2 = alloca ptr, align 8
  store ptr %0, ptr %2, align 8
  %3 = load ptr, ptr %2, align 8
  %4 = getelementptr inbounds %"class.cv::utils::trace::details::Region", ptr %3, i32 0, i32 1
  %5 = load i32, ptr %4, align 8
  %6 = icmp ne i32 %5, 0
  br i1 %6, label %7, label %9

7:                                                ; preds = %1
  invoke void @_ZN2cv5utils5trace7details6Region7destroyEv(ptr noundef nonnull align 8 dereferenceable(12) %3)
          to label %8 unwind label %10

8:                                                ; preds = %7
  br label %9

9:                                                ; preds = %8, %1
  ret void

10:                                               ; preds = %7
  %11 = landingpad { ptr, i32 }
          catch ptr null
  %12 = extractvalue { ptr, i32 } %11, 0
  call void @__clang_call_terminate(ptr %12) #12
  unreachable
}

; Function Attrs: mustprogress uwtable
define internal void @_ZNK2cv3hal12cpu_baseline12_GLOBAL__N_17RGB2RGBIhEclEPKhPhi(ptr noundef nonnull align 4 dereferenceable(12) %0, ptr noundef %1, ptr noundef %2, i32 noundef %3) #0 align 2 {
  %5 = alloca ptr, align 8
  %6 = alloca ptr, align 8
  %7 = alloca ptr, align 8
  %8 = alloca i32, align 4
  %9 = alloca i32, align 4
  %10 = alloca i32, align 4
  %11 = alloca i32, align 4
  %12 = alloca i32, align 4
  %13 = alloca i8, align 1
  %14 = alloca i8, align 1
  %15 = alloca i8, align 1
  %16 = alloca i8, align 1
  %17 = alloca i8, align 1
  store ptr %0, ptr %5, align 8
  store ptr %1, ptr %6, align 8
  store ptr %2, ptr %7, align 8
  store i32 %3, ptr %8, align 4
  %18 = load ptr, ptr %5, align 8
  %19 = getelementptr inbounds %"struct.cv::hal::cpu_baseline::(anonymous namespace)::RGB2RGB", ptr %18, i32 0, i32 0
  %20 = load i32, ptr %19, align 4
  store i32 %20, ptr %9, align 4
  %21 = getelementptr inbounds %"struct.cv::hal::cpu_baseline::(anonymous namespace)::RGB2RGB", ptr %18, i32 0, i32 1
  %22 = load i32, ptr %21, align 4
  store i32 %22, ptr %10, align 4
  %23 = getelementptr inbounds %"struct.cv::hal::cpu_baseline::(anonymous namespace)::RGB2RGB", ptr %18, i32 0, i32 2
  %24 = load i32, ptr %23, align 4
  store i32 %24, ptr %11, align 4
  store i32 0, ptr %12, align 4
  %25 = call noundef zeroext i8 @_ZN2cv4impl12_GLOBAL__N_112ColorChannelIhE3maxEv()
  store i8 %25, ptr %13, align 1
  br label %26

26:                                               ; preds = %71, %4
  %27 = load i32, ptr %12, align 4
  %28 = load i32, ptr %8, align 4
  %29 = icmp slt i32 %27, %28
  br i1 %29, label %30, label %82

30:                                               ; preds = %26
  %31 = load ptr, ptr %6, align 8
  %32 = getelementptr inbounds i8, ptr %31, i64 0
  %33 = load i8, ptr %32, align 1
  store i8 %33, ptr %14, align 1
  %34 = load ptr, ptr %6, align 8
  %35 = getelementptr inbounds i8, ptr %34, i64 1
  %36 = load i8, ptr %35, align 1
  store i8 %36, ptr %15, align 1
  %37 = load ptr, ptr %6, align 8
  %38 = getelementptr inbounds i8, ptr %37, i64 2
  %39 = load i8, ptr %38, align 1
  store i8 %39, ptr %16, align 1
  %40 = load i8, ptr %14, align 1
  %41 = load ptr, ptr %7, align 8
  %42 = load i32, ptr %11, align 4
  %43 = sext i32 %42 to i64
  %44 = getelementptr inbounds i8, ptr %41, i64 %43
  store i8 %40, ptr %44, align 1
  %45 = load i8, ptr %15, align 1
  %46 = load ptr, ptr %7, align 8
  %47 = getelementptr inbounds i8, ptr %46, i64 1
  store i8 %45, ptr %47, align 1
  %48 = load i8, ptr %16, align 1
  %49 = load ptr, ptr %7, align 8
  %50 = load i32, ptr %11, align 4
  %51 = xor i32 %50, 2
  %52 = sext i32 %51 to i64
  %53 = getelementptr inbounds i8, ptr %49, i64 %52
  store i8 %48, ptr %53, align 1
  %54 = load i32, ptr %10, align 4
  %55 = icmp eq i32 %54, 4
  br i1 %55, label %56, label %70

56:                                               ; preds = %30
  %57 = load i32, ptr %9, align 4
  %58 = icmp eq i32 %57, 4
  br i1 %58, label %59, label %63

59:                                               ; preds = %56
  %60 = load ptr, ptr %6, align 8
  %61 = getelementptr inbounds i8, ptr %60, i64 3
  %62 = load i8, ptr %61, align 1
  br label %65

63:                                               ; preds = %56
  %64 = load i8, ptr %13, align 1
  br label %65

65:                                               ; preds = %63, %59
  %66 = phi i8 [ %62, %59 ], [ %64, %63 ]
  store i8 %66, ptr %17, align 1
  %67 = load i8, ptr %17, align 1
  %68 = load ptr, ptr %7, align 8
  %69 = getelementptr inbounds i8, ptr %68, i64 3
  store i8 %67, ptr %69, align 1
  br label %70

70:                                               ; preds = %65, %30
  br label %71

71:                                               ; preds = %70
  %72 = load i32, ptr %12, align 4
  %73 = add nsw i32 %72, 1
  store i32 %73, ptr %12, align 4
  %74 = load i32, ptr %9, align 4
  %75 = load ptr, ptr %6, align 8
  %76 = sext i32 %74 to i64
  %77 = getelementptr inbounds i8, ptr %75, i64 %76
  store ptr %77, ptr %6, align 8
  %78 = load i32, ptr %10, align 4
  %79 = load ptr, ptr %7, align 8
  %80 = sext i32 %78 to i64
  %81 = getelementptr inbounds i8, ptr %79, i64 %80
  store ptr %81, ptr %7, align 8
  br label %26, !llvm.loop !9

82:                                               ; preds = %26
  ret void
}

; Function Attrs: mustprogress uwtable
define internal void @_ZNK2cv4impl12_GLOBAL__N_120CvtColorLoop_InvokerINS_3hal12cpu_baseline12_GLOBAL__N_17RGB2RGBIhEEEclERKNS_5RangeE(ptr noundef nonnull align 8 dereferenceable(56) %0, ptr noundef nonnull align 4 dereferenceable(8) %1) unnamed_addr #0 align 2 personality ptr @__gxx_personality_v0 {
  %3 = alloca ptr, align 8
  %4 = alloca ptr, align 8
  %5 = alloca %"class.cv::utils::trace::details::Region", align 8
  %6 = alloca ptr, align 8
  %7 = alloca ptr, align 8
  %8 = alloca i32, align 4
  %9 = alloca ptr, align 8
  %10 = alloca i32, align 4
  store ptr %0, ptr %3, align 8
  store ptr %1, ptr %4, align 8
  %11 = load ptr, ptr %3, align 8
  call void @_ZN2cv5utils5trace7details6RegionC1ERKNS3_21LocationStaticStorageE(ptr noundef nonnull align 8 dereferenceable(12) %5, ptr noundef nonnull align 8 dereferenceable(32) @_ZZNK2cv4impl12_GLOBAL__N_120CvtColorLoop_InvokerINS_3hal12cpu_baseline12_GLOBAL__N_17RGB2RGBIhEEEclERKNS_5RangeEE25__cv_trace_location_fn146)
  %12 = getelementptr inbounds %"class.cv::impl::(anonymous namespace)::CvtColorLoop_Invoker", ptr %11, i32 0, i32 1
  %13 = load ptr, ptr %12, align 8
  %14 = load ptr, ptr %4, align 8
  %15 = getelementptr inbounds %"class.cv::Range", ptr %14, i32 0, i32 0
  %16 = load i32, ptr %15, align 4
  %17 = sext i32 %16 to i64
  %18 = getelementptr inbounds %"class.cv::impl::(anonymous namespace)::CvtColorLoop_Invoker", ptr %11, i32 0, i32 2
  %19 = load i64, ptr %18, align 8
  %20 = mul i64 %17, %19
  %21 = getelementptr inbounds i8, ptr %13, i64 %20
  store ptr %21, ptr %6, align 8
  %22 = getelementptr inbounds %"class.cv::impl::(anonymous namespace)::CvtColorLoop_Invoker", ptr %11, i32 0, i32 3
  %23 = load ptr, ptr %22, align 8
  %24 = load ptr, ptr %4, align 8
  %25 = getelementptr inbounds %"class.cv::Range", ptr %24, i32 0, i32 0
  %26 = load i32, ptr %25, align 4
  %27 = sext i32 %26 to i64
  %28 = getelementptr inbounds %"class.cv::impl::(anonymous namespace)::CvtColorLoop_Invoker", ptr %11, i32 0, i32 4
  %29 = load i64, ptr %28, align 8
  %30 = mul i64 %27, %29
  %31 = getelementptr inbounds i8, ptr %23, i64 %30
  store ptr %31, ptr %7, align 8
  %32 = load ptr, ptr %4, align 8
  %33 = getelementptr inbounds %"class.cv::Range", ptr %32, i32 0, i32 0
  %34 = load i32, ptr %33, align 4
  store i32 %34, ptr %8, align 4
  br label %35

35:                                               ; preds = %49, %2
  %36 = load i32, ptr %8, align 4
  %37 = load ptr, ptr %4, align 8
  %38 = getelementptr inbounds %"class.cv::Range", ptr %37, i32 0, i32 1
  %39 = load i32, ptr %38, align 4
  %40 = icmp slt i32 %36, %39
  br i1 %40, label %41, label %64

41:                                               ; preds = %35
  %42 = getelementptr inbounds %"class.cv::impl::(anonymous namespace)::CvtColorLoop_Invoker", ptr %11, i32 0, i32 6
  %43 = load ptr, ptr %42, align 8
  %44 = load ptr, ptr %6, align 8
  %45 = load ptr, ptr %7, align 8
  %46 = getelementptr inbounds %"class.cv::impl::(anonymous namespace)::CvtColorLoop_Invoker", ptr %11, i32 0, i32 5
  %47 = load i32, ptr %46, align 8
  invoke void @_ZNK2cv3hal12cpu_baseline12_GLOBAL__N_17RGB2RGBIhEclEPKhPhi(ptr noundef nonnull align 4 dereferenceable(12) %43, ptr noundef %44, ptr noundef %45, i32 noundef %47)
          to label %48 unwind label %60

48:                                               ; preds = %41
  br label %49

49:                                               ; preds = %48
  %50 = load i32, ptr %8, align 4
  %51 = add nsw i32 %50, 1
  store i32 %51, ptr %8, align 4
  %52 = getelementptr inbounds %"class.cv::impl::(anonymous namespace)::CvtColorLoop_Invoker", ptr %11, i32 0, i32 2
  %53 = load i64, ptr %52, align 8
  %54 = load ptr, ptr %6, align 8
  %55 = getelementptr inbounds i8, ptr %54, i64 %53
  store ptr %55, ptr %6, align 8
  %56 = getelementptr inbounds %"class.cv::impl::(anonymous namespace)::CvtColorLoop_Invoker", ptr %11, i32 0, i32 4
  %57 = load i64, ptr %56, align 8
  %58 = load ptr, ptr %7, align 8
  %59 = getelementptr inbounds i8, ptr %58, i64 %57
  store ptr %59, ptr %7, align 8
  br label %35, !llvm.loop !8

60:                                               ; preds = %41
  %61 = landingpad { ptr, i32 }
          cleanup
  %62 = extractvalue { ptr, i32 } %61, 0
  store ptr %62, ptr %9, align 8
  %63 = extractvalue { ptr, i32 } %61, 1
  store i32 %63, ptr %10, align 4
  call void @_ZN2cv5utils5trace7details6RegionD2Ev(ptr noundef nonnull align 8 dereferenceable(12) %5) #10
  br label %65

64:                                               ; preds = %35
  call void @_ZN2cv5utils5trace7details6RegionD2Ev(ptr noundef nonnull align 8 dereferenceable(12) %5) #10
  ret void

65:                                               ; preds = %60
  %66 = load ptr, ptr %9, align 8
  %67 = load i32, ptr %10, align 4
  %68 = insertvalue { ptr, i32 } poison, ptr %66, 0
  %69 = insertvalue { ptr, i32 } %68, i32 %67, 1
  resume { ptr, i32 } %69
}